; Function Attrs: mustprogress nofree norecurse nosync nounwind willreturn memory(argmem: readwrite) uwtable
define void @ff_mpeg1_clean_buffers(ptr noundef captures(none) initializes((1284, 1296), (3056, 3088)) %0) local_unnamed_addr #2 {
  %2 = getelementptr inbounds nuw i8, ptr %0, i64 4216
  %3 = load i32, ptr %2, align 8, !tbaa !9
  %4 = add nsw i32 %3, 7
  %5 = shl nuw i32 1, %4
  %6 = getelementptr inbounds nuw i8, ptr %0, i64 1284
  store i32 %5, ptr %6, align 4, !tbaa !39
  %7 = getelementptr inbounds nuw i8, ptr %0, i64 1288
  store i32 %5, ptr %7, align 4, !tbaa !39
  %8 = getelementptr inbounds nuw i8, ptr %0, i64 1292
  store i32 %5, ptr %8, align 4, !tbaa !39
  %9 = getelementptr inbounds nuw i8, ptr %0, i64 3056
  tail call void @llvm.memset.p0.i64(ptr noundef nonnull align 8 dereferenceable(32) %9, i8 0, i64 32, i1 false)
  ret void
}